; Function Attrs: mustprogress uwtable
define void @_ZN2cv4gapi8RGB2GrayERKNS_4GMatEfff(ptr dead_on_unwind noalias writable sret(%"class.cv::GMat") align 8 %0, ptr nocapture noundef nonnull readonly align 8 dereferenceable(16) %1, float noundef %2, float noundef %3, float noundef %4) local_unnamed_addr #3 personality ptr @__gxx_personality_v0 {
  %6 = alloca %"class.cv::GMat", align 8
  %7 = load ptr, ptr %1, align 8
  store ptr %7, ptr %6, align 8
  %8 = getelementptr inbounds i8, ptr %6, i64 8
  %9 = getelementptr inbounds i8, ptr %1, i64 8
  %10 = load ptr, ptr %9, align 8
  store ptr %10, ptr %8, align 8
  %.not.i.i.i.i = icmp eq ptr %10, null
  br i1 %.not.i.i.i.i, label %_ZN2cv4GMatC2ERKS0_.exit, label %11

11:                                               ; preds = %5
  %12 = getelementptr inbounds i8, ptr %10, i64 8
  %13 = load i8, ptr @__libc_single_threaded, align 1
  %.not.i.i.i.i.i = icmp eq i8 %13, 0
  br i1 %.not.i.i.i.i.i, label %17, label %14

14:                                               ; preds = %11
  %15 = load i32, ptr %12, align 4
  %16 = add nsw i32 %15, 1
  store i32 %16, ptr %12, align 4
  br label %_ZN2cv4GMatC2ERKS0_.exit

17:                                               ; preds = %11
  %18 = atomicrmw volatile add ptr %12, i32 1 acq_rel, align 4
  br label %_ZN2cv4GMatC2ERKS0_.exit

_ZN2cv4GMatC2ERKS0_.exit:                         ; preds = %5, %14, %17
  invoke void @_ZN2cv11GKernelTypeINS_4gapi7imgproc15GRGB2GrayCustomESt8functionIFNS_4GMatES5_fffEEE2onES5_fff(ptr dead_on_unwind writable sret(%"class.cv::GMat") align 8 %0, ptr noundef nonnull %6, float noundef %2, float noundef %3, float noundef %4)
          to label %19 unwind label %55

19:                                               ; preds = %_ZN2cv4GMatC2ERKS0_.exit
  %20 = load ptr, ptr %8, align 8
  %.not.i.i.i.i5 = icmp eq ptr %20, null
  br i1 %.not.i.i.i.i5, label %_ZN2cv4GMatD2Ev.exit, label %21

21:                                               ; preds = %19
  %22 = getelementptr inbounds i8, ptr %20, i64 8
  %23 = load atomic i64, ptr %22 acquire, align 8
  %24 = icmp eq i64 %23, 4294967297
  %25 = trunc i64 %23 to i32
  br i1 %24, label %26, label %31

26:                                               ; preds = %21
  store i32 0, ptr %22, align 8
  %27 = getelementptr inbounds i8, ptr %20, i64 12
  store i32 0, ptr %27, align 4
  %28 = load ptr, ptr %20, align 8
  %29 = getelementptr inbounds i8, ptr %28, i64 16
  %30 = load ptr, ptr %29, align 8
  call void %30(ptr noundef nonnull align 8 dereferenceable(16) %20) #18
  br label %_ZNSt16_Sp_counted_baseILN9__gnu_cxx12_Lock_policyE2EE24_M_release_last_use_coldEv.exit.sink.split.i.i.i.i.i

31:                                               ; preds = %21
  %32 = load i8, ptr @__libc_single_threaded, align 1
  %.not.i.i.i.i.i6 = icmp eq i8 %32, 0
  br i1 %.not.i.i.i.i.i6, label %35, label %33

33:                                               ; preds = %31
  %34 = add nsw i32 %25, -1
  store i32 %34, ptr %22, align 4
  br label %37

35:                                               ; preds = %31
  %36 = atomicrmw volatile add ptr %22, i32 -1 acq_rel, align 4
  br label %37

37:                                               ; preds = %35, %33
  %.0.i.i.i.i.i = phi i32 [ %25, %33 ], [ %36, %35 ]
  %38 = icmp eq i32 %.0.i.i.i.i.i, 1
  br i1 %38, label %39, label %_ZN2cv4GMatD2Ev.exit

39:                                               ; preds = %37
  %40 = load ptr, ptr %20, align 8
  %41 = getelementptr inbounds i8, ptr %40, i64 16
  %42 = load ptr, ptr %41, align 8
  call void %42(ptr noundef nonnull align 8 dereferenceable(16) %20) #18
  %43 = getelementptr inbounds i8, ptr %20, i64 12
  %44 = load i8, ptr @__libc_single_threaded, align 1
  %.not.i.i.i.i.i.i.i = icmp eq i8 %44, 0
  br i1 %.not.i.i.i.i.i.i.i, label %48, label %45

45:                                               ; preds = %39
  %46 = load i32, ptr %43, align 4
  %47 = add nsw i32 %46, -1
  store i32 %47, ptr %43, align 4
  br label %50

48:                                               ; preds = %39
  %49 = atomicrmw volatile add ptr %43, i32 -1 acq_rel, align 4
  br label %50

50:                                               ; preds = %48, %45
  %.0.i.i.i.i.i.i.i = phi i32 [ %46, %45 ], [ %49, %48 ]
  %51 = icmp eq i32 %.0.i.i.i.i.i.i.i, 1
  br i1 %51, label %_ZNSt16_Sp_counted_baseILN9__gnu_cxx12_Lock_policyE2EE24_M_release_last_use_coldEv.exit.sink.split.i.i.i.i.i, label %_ZN2cv4GMatD2Ev.exit

_ZNSt16_Sp_counted_baseILN9__gnu_cxx12_Lock_policyE2EE24_M_release_last_use_coldEv.exit.sink.split.i.i.i.i.i: ; preds = %50, %26
  %52 = load ptr, ptr %20, align 8
  %53 = getelementptr inbounds i8, ptr %52, i64 24
  %54 = load ptr, ptr %53, align 8
  call void %54(ptr noundef nonnull align 8 dereferenceable(16) %20) #18
  br label %_ZN2cv4GMatD2Ev.exit

_ZN2cv4GMatD2Ev.exit:                             ; preds = %19, %37, %50, %_ZNSt16_Sp_counted_baseILN9__gnu_cxx12_Lock_policyE2EE24_M_release_last_use_coldEv.exit.sink.split.i.i.i.i.i
  ret void

55:                                               ; preds = %_ZN2cv4GMatC2ERKS0_.exit
  %56 = landingpad { ptr, i32 }
          cleanup
  call void @_ZN2cv4GMatD2Ev(ptr noundef nonnull align 8 dereferenceable(16) %6) #18
  resume { ptr, i32 } %56
}